ccopy_reg
_reconstructor
p0
(cproject_pkg.msg._Music
Music
p1
c__builtin__
object
p2
Ntp3
Rp4
(lp5
(lp6
g0
(cproject_pkg.msg._Note
Note
p7
g2
Ntp8
Rp9
(lp10
I0
aF0.25
aI0
abag0
(g7
g2
Ntp11
Rp12
(lp13
I0
aF0.25
aI0
abag0
(g7
g2
Ntp14
Rp15
(lp16
I4
aF0.25
aI0
abag0
(g7
g2
Ntp17
Rp18
(lp19
I4
aF0.25
aI0
abag0
(g7
g2
Ntp20
Rp21
(lp22
I5
aF0.25
aI0
abag0
(g7
g2
Ntp23
Rp24
(lp25
I5
aF0.25
aI0
abag0
(g7
g2
Ntp26
Rp27
(lp28
I4
aF0.5
aI0
abag0
(g7
g2
Ntp29
Rp30
(lp31
I3
aF0.25
aI0
abag0
(g7
g2
Ntp32
Rp33
(lp34
I3
aF0.25
aI0
abag0
(g7
g2
Ntp35
Rp36
(lp37
I2
aF0.25
aI0
abag0
(g7
g2
Ntp38
Rp39
(lp40
I2
aF0.25
aI0
abag0
(g7
g2
Ntp41
Rp42
(lp43
I1
aF0.25
aI0
abag0
(g7
g2
Ntp44
Rp45
(lp46
I1
aF0.25
aI0
abag0
(g7
g2
Ntp47
Rp48
(lp49
I0
aF0.5
aI0
abag0
(g7
g2
Ntp50
Rp51
(lp52
I4
aF0.25
aI0
abag0
(g7
g2
Ntp53
Rp54
(lp55
I4
aF0.25
aI0
abag0
(g7
g2
Ntp56
Rp57
(lp58
I3
aF0.25
aI0
abag0
(g7
g2
Ntp59
Rp60
(lp61
I3
aF0.25
aI0
abag0
(g7
g2
Ntp62
Rp63
(lp64
I2
aF0.25
aI0
abag0
(g7
g2
Ntp65
Rp66
(lp67
I2
aF0.25
aI0
abag0
(g7
g2
Ntp68
Rp69
(lp70
I1
aF0.5
aI0
abag0
(g7
g2
Ntp71
Rp72
(lp73
I4
aF0.25
aI0
abag0
(g7
g2
Ntp74
Rp75
(lp76
I4
aF0.25
aI0
abag0
(g7
g2
Ntp77
Rp78
(lp79
I3
aF0.25
aI0
abag0
(g7
g2
Ntp80
Rp81
(lp82
I3
aF0.25
aI0
abag0
(g7
g2
Ntp83
Rp84
(lp85
I2
aF0.25
aI0
abag0
(g7
g2
Ntp86
Rp87
(lp88
I2
aF0.25
aI0
abag0
(g7
g2
Ntp89
Rp90
(lp91
I1
aF0.5
aI0
abag0
(g7
g2
Ntp92
Rp93
(lp94
I0
aF0.25
aI0
abag0
(g7
g2
Ntp95
Rp96
(lp97
I0
aF0.25
aI0
abag0
(g7
g2
Ntp98
Rp99
(lp100
I4
aF0.25
aI0
abag0
(g7
g2
Ntp101
Rp102
(lp103
I4
aF0.25
aI0
abag0
(g7
g2
Ntp104
Rp105
(lp106
I5
aF0.25
aI0
abag0
(g7
g2
Ntp107
Rp108
(lp109
I5
aF0.25
aI0
abag0
(g7
g2
Ntp110
Rp111
(lp112
I4
aF0.5
aI0
abag0
(g7
g2
Ntp113
Rp114
(lp115
I3
aF0.25
aI0
abag0
(g7
g2
Ntp116
Rp117
(lp118
I3
aF0.25
aI0
abag0
(g7
g2
Ntp119
Rp120
(lp121
I2
aF0.25
aI0
abag0
(g7
g2
Ntp122
Rp123
(lp124
I2
aF0.25
aI0
abag0
(g7
g2
Ntp125
Rp126
(lp127
I1
aF0.25
aI0
abag0
(g7
g2
Ntp128
Rp129
(lp130
I1
aF0.25
aI0
abag0
(g7
g2
Ntp131
Rp132
(lp133
I0
aF0.5
aI0
abaab.